; Function Attrs: mustprogress nofree norecurse nosync nounwind willreturn memory(argmem: write) uwtable
define hidden void @_ZN12opencv_caffe18HingeLossParameterC2EPN6google8protobuf5ArenaEb(ptr noundef nonnull writeonly align 8 captures(none) dereferenceable(32) initializes((0, 28)) %0, ptr noundef %1, i1 noundef zeroext %2) unnamed_addr #5 align 2 personality ptr @__gxx_personality_v0 {
_ZN6google8protobuf8internal7HasBitsILm1EEC2Ev.exit:
  %3 = getelementptr inbounds nuw i8, ptr %0, i64 8
  %4 = ptrtoint ptr %1 to i64
  %5 = or i64 %4, 2
  %6 = select i1 %2, i64 %5, i64 %4
  store i64 %6, ptr %3, align 8, !tbaa !8
  store ptr getelementptr inbounds nuw inrange(-16, 152) (i8, ptr @_ZTVN12opencv_caffe18HingeLossParameterE, i64 16), ptr %0, align 8, !tbaa !11
  %.ptr = getelementptr inbounds nuw i8, ptr %0, i64 16
  store i32 0, ptr %.ptr, align 8, !tbaa !71
  %7 = getelementptr inbounds nuw i8, ptr %0, i64 20
  store i32 0, ptr %7, align 4, !tbaa !18
  %8 = getelementptr inbounds nuw i8, ptr %0, i64 24
  store i32 1, ptr %8, align 8, !tbaa !485
  ret void
}